target datalayout = "e-m:e-p270:32:32-p271:32:32-p272:64:64-i64:64-i128:128-f80:128-n8:16:32:64-S128"
target triple = "x86_64-pc-linux-gnu"

%struct.XLogRecordBuffer = type { i64, i64, ptr }
%struct.LogicalDecodingContext = type { ptr, ptr, ptr, ptr, ptr, i8, %struct.OutputPluginCallbacks, %struct.OutputPluginOptions, ptr, ptr, ptr, ptr, ptr, ptr, ptr, i8, i8, i8, i8, i8, i64, i32, i8, i8 }
%struct.OutputPluginCallbacks = type { ptr, ptr, ptr, ptr, ptr, ptr, ptr, ptr, ptr, ptr, ptr, ptr, ptr, ptr, ptr, ptr, ptr, ptr, ptr, ptr, ptr }
%struct.OutputPluginOptions = type { i32, i8 }
%struct.XLogReaderState = type { %struct.XLogReaderRoutine, i64, ptr, i64, i64, i64, i64, i64, i64, i64, i64, ptr, ptr, i64, i8, ptr, ptr, ptr, ptr, ptr, i32, %struct.WALSegmentContext, %struct.WALOpenSegment, i32, i64, i32, i64, i32, i64, i32, ptr, i32, ptr, i8, i8 }
%struct.XLogReaderRoutine = type { ptr, ptr, ptr }
%struct.WALSegmentContext = type { [1024 x i8], i32 }
%struct.WALOpenSegment = type { i32, i64, i32 }
%struct.DecodedXLogRecord = type { i64, i8, ptr, i64, i64, %struct.XLogRecord, i16, i32, ptr, i32, i32, [0 x %struct.DecodedBkpBlock] }
%struct.XLogRecord = type { i32, i32, i64, i8, i8, i32 }
%struct.DecodedBkpBlock = type { i8, %struct.RelFileLocator, i32, i32, i32, i8, i8, i8, ptr, i16, i16, i16, i8, i8, ptr, i16, i16 }
%struct.RelFileLocator = type { i32, i32, i32 }
%struct.ReplicationSlot = type { i8, i8, i32, i8, i8, i32, i32, %struct.ReplicationSlotPersistentData, %struct.LWLock, %struct.ConditionVariable, i32, i64, i64, i64, i64, i64 }
%struct.ReplicationSlotPersistentData = type { %struct.nameData, i32, i32, i32, i32, i64, i32, i64, i64, i8, %struct.nameData, i8, i8 }
%struct.nameData = type { [64 x i8] }
%struct.LWLock = type { i16, %struct.pg_atomic_uint32, %struct.proclist_head }
%struct.pg_atomic_uint32 = type { i32 }
%struct.proclist_head = type { i32, i32 }
%struct.ConditionVariable = type { i8, %struct.proclist_head }
%struct.xl_logical_message = type { i32, i8, i64, i64, [0 x i8] }

@.str.1 = private unnamed_addr constant [9 x i8] c"decode.c\00", align 1
@.str.7 = private unnamed_addr constant [44 x i8] c"unexpected RM_LOGICALMSG_ID record type: %u\00", align 1
@__func__.logicalmsg_decode = private unnamed_addr constant [18 x i8] c"logicalmsg_decode\00", align 1

; Function Attrs: inlinehint nounwind uwtable
define internal zeroext i1 @FilterByOrigin(ptr noundef %0, i16 noundef zeroext %1) #3 {
  %3 = alloca i1, align 1
  %4 = alloca ptr, align 8
  %5 = alloca i16, align 2
  store ptr %0, ptr %4, align 8
  store i16 %1, ptr %5, align 2
  %6 = load ptr, ptr %4, align 8
  %7 = getelementptr inbounds nuw %struct.LogicalDecodingContext, ptr %6, i32 0, i32 6
  %8 = getelementptr inbounds nuw %struct.OutputPluginCallbacks, ptr %7, i32 0, i32 6
  %9 = load ptr, ptr %8, align 8
  %10 = icmp eq ptr %9, null
  br i1 %10, label %11, label %12

11:                                               ; preds = %2
  store i1 false, ptr %3, align 1
  br label %16

12:                                               ; preds = %2
  %13 = load ptr, ptr %4, align 8
  %14 = load i16, ptr %5, align 2
  %15 = call zeroext i1 @filter_by_origin_cb_wrapper(ptr noundef %13, i16 noundef zeroext %14)
  store i1 %15, ptr %3, align 1
  br label %16

16:                                               ; preds = %12, %11
  %17 = load i1, ptr %3, align 1
  ret i1 %17
}

; Function Attrs: nounwind uwtable
define dso_local void @logicalmsg_decode(ptr noundef %0, ptr noundef %1) #0 {
  %3 = alloca ptr, align 8
  %4 = alloca ptr, align 8
  %5 = alloca ptr, align 8
  %6 = alloca ptr, align 8
  %7 = alloca i32, align 4
  %8 = alloca i8, align 1
  %9 = alloca i16, align 2
  %10 = alloca ptr, align 8
  %11 = alloca ptr, align 8
  %12 = alloca i32, align 4
  store ptr %0, ptr %3, align 8
  store ptr %1, ptr %4, align 8
  call void @llvm.lifetime.start.p0(i64 8, ptr %5) #8
  %13 = load ptr, ptr %3, align 8
  %14 = getelementptr inbounds nuw %struct.LogicalDecodingContext, ptr %13, i32 0, i32 4
  %15 = load ptr, ptr %14, align 8
  store ptr %15, ptr %5, align 8
  call void @llvm.lifetime.start.p0(i64 8, ptr %6) #8
  %16 = load ptr, ptr %4, align 8
  %17 = getelementptr inbounds nuw %struct.XLogRecordBuffer, ptr %16, i32 0, i32 2
  %18 = load ptr, ptr %17, align 8
  store ptr %18, ptr %6, align 8
  call void @llvm.lifetime.start.p0(i64 4, ptr %7) #8
  %19 = load ptr, ptr %6, align 8
  %20 = getelementptr inbounds nuw %struct.XLogReaderState, ptr %19, i32 0, i32 11
  %21 = load ptr, ptr %20, align 8
  %22 = getelementptr inbounds nuw %struct.DecodedXLogRecord, ptr %21, i32 0, i32 5
  %23 = getelementptr inbounds nuw %struct.XLogRecord, ptr %22, i32 0, i32 1
  %24 = load i32, ptr %23, align 4
  store i32 %24, ptr %7, align 4
  call void @llvm.lifetime.start.p0(i64 1, ptr %8) #8
  %25 = load ptr, ptr %6, align 8
  %26 = getelementptr inbounds nuw %struct.XLogReaderState, ptr %25, i32 0, i32 11
  %27 = load ptr, ptr %26, align 8
  %28 = getelementptr inbounds nuw %struct.DecodedXLogRecord, ptr %27, i32 0, i32 5
  %29 = getelementptr inbounds nuw %struct.XLogRecord, ptr %28, i32 0, i32 3
  %30 = load i8, ptr %29, align 8
  %31 = zext i8 %30 to i32
  %32 = and i32 %31, -16
  %33 = trunc i32 %32 to i8
  store i8 %33, ptr %8, align 1
  call void @llvm.lifetime.start.p0(i64 2, ptr %9) #8
  %34 = load ptr, ptr %6, align 8
  %35 = getelementptr inbounds nuw %struct.XLogReaderState, ptr %34, i32 0, i32 11
  %36 = load ptr, ptr %35, align 8
  %37 = getelementptr inbounds nuw %struct.DecodedXLogRecord, ptr %36, i32 0, i32 6
  %38 = load i16, ptr %37, align 8
  store i16 %38, ptr %9, align 2
  call void @llvm.lifetime.start.p0(i64 8, ptr %10) #8
  store ptr null, ptr %10, align 8
  call void @llvm.lifetime.start.p0(i64 8, ptr %11) #8
  %39 = load i8, ptr %8, align 1
  %40 = zext i8 %39 to i32
  %41 = icmp ne i32 %40, 0
  br i1 %41, label %42, label %55

42:                                               ; preds = %2
  br label %43

43:                                               ; preds = %42
  br i1 true, label %44, label %46

44:                                               ; preds = %43
  %45 = call zeroext i1 @errstart_cold(i32 noundef 21, ptr noundef null) #9
  br i1 %45, label %48, label %52

46:                                               ; preds = %43
  %47 = call zeroext i1 @errstart(i32 noundef 21, ptr noundef null)
  br i1 %47, label %48, label %52

48:                                               ; preds = %46, %44
  %49 = load i8, ptr %8, align 1
  %50 = zext i8 %49 to i32
  %51 = call i32 (ptr, ...) @errmsg_internal(ptr noundef @.str.7, i32 noundef %50)
  call void @errfinish(ptr noundef @.str.1, i32 noundef 593, ptr noundef @__func__.logicalmsg_decode)
  br label %52

52:                                               ; preds = %48, %46, %44
  unreachable

53:                                               ; No predecessors!
  br label %54

54:                                               ; preds = %53
  br label %55

55:                                               ; preds = %54, %2
  %56 = load ptr, ptr %3, align 8
  %57 = getelementptr inbounds nuw %struct.LogicalDecodingContext, ptr %56, i32 0, i32 3
  %58 = load ptr, ptr %57, align 8
  %59 = load ptr, ptr %6, align 8
  %60 = getelementptr inbounds nuw %struct.XLogReaderState, ptr %59, i32 0, i32 11
  %61 = load ptr, ptr %60, align 8
  %62 = getelementptr inbounds nuw %struct.DecodedXLogRecord, ptr %61, i32 0, i32 5
  %63 = getelementptr inbounds nuw %struct.XLogRecord, ptr %62, i32 0, i32 1
  %64 = load i32, ptr %63, align 4
  %65 = load ptr, ptr %4, align 8
  %66 = getelementptr inbounds nuw %struct.XLogRecordBuffer, ptr %65, i32 0, i32 0
  %67 = load i64, ptr %66, align 8
  call void @ReorderBufferProcessXid(ptr noundef %58, i32 noundef %64, i64 noundef %67)
  %68 = load ptr, ptr %5, align 8
  %69 = call i32 @SnapBuildCurrentState(ptr noundef %68)
  %70 = icmp slt i32 %69, 1
  br i1 %70, label %71, label %72

71:                                               ; preds = %55
  store i32 1, ptr %12, align 4
  br label %171

72:                                               ; preds = %55
  %73 = load ptr, ptr %6, align 8
  %74 = getelementptr inbounds nuw %struct.XLogReaderState, ptr %73, i32 0, i32 11
  %75 = load ptr, ptr %74, align 8
  %76 = getelementptr inbounds nuw %struct.DecodedXLogRecord, ptr %75, i32 0, i32 8
  %77 = load ptr, ptr %76, align 8
  store ptr %77, ptr %11, align 8
  %78 = load ptr, ptr %11, align 8
  %79 = getelementptr inbounds nuw %struct.xl_logical_message, ptr %78, i32 0, i32 0
  %80 = load i32, ptr %79, align 8
  %81 = load ptr, ptr %3, align 8
  %82 = getelementptr inbounds nuw %struct.LogicalDecodingContext, ptr %81, i32 0, i32 1
  %83 = load ptr, ptr %82, align 8
  %84 = getelementptr inbounds nuw %struct.ReplicationSlot, ptr %83, i32 0, i32 7
  %85 = getelementptr inbounds nuw %struct.ReplicationSlotPersistentData, ptr %84, i32 0, i32 1
  %86 = load i32, ptr %85, align 8
  %87 = icmp ne i32 %80, %86
  br i1 %87, label %92, label %88

88:                                               ; preds = %72
  %89 = load ptr, ptr %3, align 8
  %90 = load i16, ptr %9, align 2
  %91 = call zeroext i1 @FilterByOrigin(ptr noundef %89, i16 noundef zeroext %90)
  br i1 %91, label %92, label %93

92:                                               ; preds = %88, %72
  store i32 1, ptr %12, align 4
  br label %171

93:                                               ; preds = %88
  %94 = load ptr, ptr %11, align 8
  %95 = getelementptr inbounds nuw %struct.xl_logical_message, ptr %94, i32 0, i32 1
  %96 = load i8, ptr %95, align 4, !range !4, !noundef !5
  %97 = trunc i8 %96 to i1
  br i1 %97, label %98, label %106

98:                                               ; preds = %93
  %99 = load ptr, ptr %5, align 8
  %100 = load i32, ptr %7, align 4
  %101 = load ptr, ptr %4, align 8
  %102 = getelementptr inbounds nuw %struct.XLogRecordBuffer, ptr %101, i32 0, i32 0
  %103 = load i64, ptr %102, align 8
  %104 = call zeroext i1 @SnapBuildProcessChange(ptr noundef %99, i32 noundef %100, i64 noundef %103)
  br i1 %104, label %106, label %105

105:                                              ; preds = %98
  store i32 1, ptr %12, align 4
  br label %171

106:                                              ; preds = %98, %93
  %107 = load ptr, ptr %11, align 8
  %108 = getelementptr inbounds nuw %struct.xl_logical_message, ptr %107, i32 0, i32 1
  %109 = load i8, ptr %108, align 4, !range !4, !noundef !5
  %110 = trunc i8 %109 to i1
  br i1 %110, label %122, label %111

111:                                              ; preds = %106
  %112 = load ptr, ptr %5, align 8
  %113 = call i32 @SnapBuildCurrentState(ptr noundef %112)
  %114 = icmp ne i32 %113, 2
  br i1 %114, label %121, label %115

115:                                              ; preds = %111
  %116 = load ptr, ptr %5, align 8
  %117 = load ptr, ptr %4, align 8
  %118 = getelementptr inbounds nuw %struct.XLogRecordBuffer, ptr %117, i32 0, i32 0
  %119 = load i64, ptr %118, align 8
  %120 = call zeroext i1 @SnapBuildXactNeedsSkip(ptr noundef %116, i64 noundef %119)
  br i1 %120, label %121, label %122

121:                                              ; preds = %115, %111
  store i32 1, ptr %12, align 4
  br label %171

122:                                              ; preds = %115, %106
  br label %123

123:                                              ; preds = %122
  %124 = load ptr, ptr %3, align 8
  %125 = getelementptr inbounds nuw %struct.LogicalDecodingContext, ptr %124, i32 0, i32 5
  %126 = load i8, ptr %125, align 8, !range !4, !noundef !5
  %127 = trunc i8 %126 to i1
  br i1 %127, label %128, label %137

128:                                              ; preds = %123
  %129 = load ptr, ptr %11, align 8
  %130 = getelementptr inbounds nuw %struct.xl_logical_message, ptr %129, i32 0, i32 1
  %131 = load i8, ptr %130, align 4, !range !4, !noundef !5
  %132 = trunc i8 %131 to i1
  br i1 %132, label %136, label %133

133:                                              ; preds = %128
  %134 = load ptr, ptr %3, align 8
  %135 = getelementptr inbounds nuw %struct.LogicalDecodingContext, ptr %134, i32 0, i32 23
  store i8 1, ptr %135, align 1
  br label %136

136:                                              ; preds = %133, %128
  store i32 1, ptr %12, align 4
  br label %171

137:                                              ; preds = %123
  %138 = load ptr, ptr %11, align 8
  %139 = getelementptr inbounds nuw %struct.xl_logical_message, ptr %138, i32 0, i32 1
  %140 = load i8, ptr %139, align 4, !range !4, !noundef !5
  %141 = trunc i8 %140 to i1
  br i1 %141, label %145, label %142

142:                                              ; preds = %137
  %143 = load ptr, ptr %5, align 8
  %144 = call ptr @SnapBuildGetOrBuildSnapshot(ptr noundef %143)
  store ptr %144, ptr %10, align 8
  br label %145

145:                                              ; preds = %142, %137
  %146 = load ptr, ptr %3, align 8
  %147 = getelementptr inbounds nuw %struct.LogicalDecodingContext, ptr %146, i32 0, i32 3
  %148 = load ptr, ptr %147, align 8
  %149 = load i32, ptr %7, align 4
  %150 = load ptr, ptr %10, align 8
  %151 = load ptr, ptr %4, align 8
  %152 = getelementptr inbounds nuw %struct.XLogRecordBuffer, ptr %151, i32 0, i32 1
  %153 = load i64, ptr %152, align 8
  %154 = load ptr, ptr %11, align 8
  %155 = getelementptr inbounds nuw %struct.xl_logical_message, ptr %154, i32 0, i32 1
  %156 = load i8, ptr %155, align 4, !range !4, !noundef !5
  %157 = trunc i8 %156 to i1
  %158 = load ptr, ptr %11, align 8
  %159 = getelementptr inbounds nuw %struct.xl_logical_message, ptr %158, i32 0, i32 4
  %160 = getelementptr inbounds [0 x i8], ptr %159, i64 0, i64 0
  %161 = load ptr, ptr %11, align 8
  %162 = getelementptr inbounds nuw %struct.xl_logical_message, ptr %161, i32 0, i32 3
  %163 = load i64, ptr %162, align 8
  %164 = load ptr, ptr %11, align 8
  %165 = getelementptr inbounds nuw %struct.xl_logical_message, ptr %164, i32 0, i32 4
  %166 = getelementptr inbounds [0 x i8], ptr %165, i64 0, i64 0
  %167 = load ptr, ptr %11, align 8
  %168 = getelementptr inbounds nuw %struct.xl_logical_message, ptr %167, i32 0, i32 2
  %169 = load i64, ptr %168, align 8
  %170 = getelementptr inbounds nuw i8, ptr %166, i64 %169
  call void @ReorderBufferQueueMessage(ptr noundef %148, i32 noundef %149, ptr noundef %150, i64 noundef %153, i1 noundef zeroext %157, ptr noundef %160, i64 noundef %163, ptr noundef %170)
  store i32 0, ptr %12, align 4
  br label %171

171:                                              ; preds = %145, %136, %121, %105, %92, %71
  call void @llvm.lifetime.end.p0(i64 8, ptr %11) #8
  call void @llvm.lifetime.end.p0(i64 8, ptr %10) #8
  call void @llvm.lifetime.end.p0(i64 2, ptr %9) #8
  call void @llvm.lifetime.end.p0(i64 1, ptr %8) #8
  call void @llvm.lifetime.end.p0(i64 4, ptr %7) #8
  call void @llvm.lifetime.end.p0(i64 8, ptr %6) #8
  call void @llvm.lifetime.end.p0(i64 8, ptr %5) #8
  %172 = load i32, ptr %12, align 4
  switch i32 %172, label %174 [
    i32 0, label %173
    i32 1, label %173
  ]

173:                                              ; preds = %171, %171
  ret void

174:                                              ; preds = %171
  unreachable
}