; Function Attrs: nounwind uwtable
define dso_local void @logicalmsg_decode(ptr noundef %0, ptr noundef readonly captures(none) %1) local_unnamed_addr #0 {
  %3 = getelementptr inbounds nuw i8, ptr %0, i64 32
  %4 = load ptr, ptr %3, align 8
  %5 = getelementptr inbounds nuw i8, ptr %1, i64 16
  %6 = load ptr, ptr %5, align 8
  %7 = getelementptr inbounds nuw i8, ptr %6, i64 104
  %8 = load ptr, ptr %7, align 8
  %9 = getelementptr inbounds nuw i8, ptr %8, i64 44
  %10 = load i32, ptr %9, align 4
  %11 = getelementptr inbounds nuw i8, ptr %8, i64 56
  %12 = load i8, ptr %11, align 8
  %13 = and i8 %12, -16
  %14 = getelementptr inbounds nuw i8, ptr %8, i64 64
  %15 = load i16, ptr %14, align 8
  %.not = icmp eq i8 %13, 0
  br i1 %.not, label %20, label %16

16:                                               ; preds = %2
  %17 = zext i8 %13 to i32
  %18 = tail call zeroext i1 @errstart_cold(i32 noundef 21, ptr noundef null) #8
  tail call void @llvm.assume(i1 %18)
  %19 = tail call i32 (ptr, ...) @errmsg_internal(ptr noundef nonnull @.str.7, i32 noundef %17) #7
  tail call void @errfinish(ptr noundef nonnull @.str.1, i32 noundef 593, ptr noundef nonnull @__func__.logicalmsg_decode) #7
  unreachable

20:                                               ; preds = %2
  %21 = getelementptr inbounds nuw i8, ptr %0, i64 24
  %22 = load ptr, ptr %21, align 8
  %23 = load i64, ptr %1, align 8
  tail call void @ReorderBufferProcessXid(ptr noundef %22, i32 noundef %10, i64 noundef %23) #7
  %24 = tail call i32 @SnapBuildCurrentState(ptr noundef %4) #7
  %25 = icmp slt i32 %24, 1
  br i1 %25, label %74, label %26

26:                                               ; preds = %20
  %27 = load ptr, ptr %7, align 8
  %28 = getelementptr inbounds nuw i8, ptr %27, i64 72
  %29 = load ptr, ptr %28, align 8
  %30 = load i32, ptr %29, align 8
  %31 = getelementptr inbounds nuw i8, ptr %0, i64 8
  %32 = load ptr, ptr %31, align 8
  %33 = getelementptr inbounds nuw i8, ptr %32, i64 88
  %34 = load i32, ptr %33, align 8
  %.not38 = icmp eq i32 %30, %34
  br i1 %.not38, label %35, label %74

35:                                               ; preds = %26
  %36 = getelementptr inbounds nuw i8, ptr %0, i64 96
  %37 = load ptr, ptr %36, align 8
  %38 = icmp eq ptr %37, null
  br i1 %38, label %FilterByOrigin.exit.thread, label %FilterByOrigin.exit

FilterByOrigin.exit:                              ; preds = %35
  %39 = tail call zeroext i1 @filter_by_origin_cb_wrapper(ptr noundef nonnull %0, i16 noundef zeroext %15) #7
  br i1 %39, label %74, label %FilterByOrigin.exit.thread

FilterByOrigin.exit.thread:                       ; preds = %35, %FilterByOrigin.exit
  %40 = getelementptr inbounds nuw i8, ptr %29, i64 4
  %41 = load i8, ptr %40, align 4, !range !8, !noundef !9
  %42 = trunc nuw i8 %41 to i1
  br i1 %42, label %43, label %.thread

43:                                               ; preds = %FilterByOrigin.exit.thread
  %44 = load i64, ptr %1, align 8
  %45 = tail call zeroext i1 @SnapBuildProcessChange(ptr noundef %4, i32 noundef %10, i64 noundef %44) #7
  br i1 %45, label %46, label %74

46:                                               ; preds = %43
  %.pre = load i8, ptr %40, align 4, !range !8
  %47 = trunc nuw i8 %.pre to i1
  br i1 %47, label %52, label %.thread

.thread:                                          ; preds = %FilterByOrigin.exit.thread, %46
  %48 = tail call i32 @SnapBuildCurrentState(ptr noundef %4) #7
  %.not39 = icmp eq i32 %48, 2
  br i1 %.not39, label %49, label %74

49:                                               ; preds = %.thread
  %50 = load i64, ptr %1, align 8
  %51 = tail call zeroext i1 @SnapBuildXactNeedsSkip(ptr noundef %4, i64 noundef %50) #7
  br i1 %51, label %74, label %52

52:                                               ; preds = %46, %49
  %53 = getelementptr inbounds nuw i8, ptr %0, i64 40
  %54 = load i8, ptr %53, align 8, !range !8, !noundef !9
  %55 = trunc nuw i8 %54 to i1
  %56 = load i8, ptr %40, align 4, !range !8, !noundef !9
  %57 = trunc nuw i8 %56 to i1
  br i1 %55, label %58, label %61

58:                                               ; preds = %52
  br i1 %57, label %74, label %59

59:                                               ; preds = %58
  %60 = getelementptr inbounds nuw i8, ptr %0, i64 301
  store i8 1, ptr %60, align 1
  br label %74

61:                                               ; preds = %52
  br i1 %57, label %64, label %62

62:                                               ; preds = %61
  %63 = tail call ptr @SnapBuildGetOrBuildSnapshot(ptr noundef %4) #7
  %.pre41 = load i8, ptr %40, align 4, !range !8
  %.pre42 = trunc nuw i8 %.pre41 to i1
  br label %64

64:                                               ; preds = %62, %61
  %.pre-phi = phi i1 [ %.pre42, %62 ], [ true, %61 ]
  %.0 = phi ptr [ %63, %62 ], [ null, %61 ]
  %65 = load ptr, ptr %21, align 8
  %66 = getelementptr inbounds nuw i8, ptr %1, i64 8
  %67 = load i64, ptr %66, align 8
  %68 = getelementptr inbounds nuw i8, ptr %29, i64 24
  %69 = getelementptr inbounds nuw i8, ptr %29, i64 16
  %70 = load i64, ptr %69, align 8
  %71 = getelementptr inbounds nuw i8, ptr %29, i64 8
  %72 = load i64, ptr %71, align 8
  %73 = getelementptr inbounds nuw i8, ptr %68, i64 %72
  tail call void @ReorderBufferQueueMessage(ptr noundef %65, i32 noundef %10, ptr noundef %.0, i64 noundef %67, i1 noundef zeroext %.pre-phi, ptr noundef nonnull %68, i64 noundef %70, ptr noundef nonnull %73) #7
  br label %74

74:                                               ; preds = %58, %59, %.thread, %49, %43, %26, %FilterByOrigin.exit, %20, %64
  ret void
}